(dp0
S'IT2ASideX1Sector4_119956_122520'
p1
clibPyROOT
_ObjectProxy__expand__
p2
(S'\x00\x00\x00\x00'
p3
S'TObject'
p4
tp5
Rp6
sS'IT3BottomVSector6_119956_122520'
p7
g2
(S'\x00\x00\x00\x00'
p8
S'TObject'
p9
tp10
Rp11
sS'IT2TopVSector5_119956_122520'
p12
g2
(S'\x00\x00\x00\x00'
p13
S'TObject'
p14
tp15
Rp16
sS'IT2CSideX1Sector7_119956_122520'
p17
g2
(S'\x00\x00\x00\x00'
p18
S'TObject'
p19
tp20
Rp21
sS'IT2TopX1Sector4_119956_122520'
p22
g2
(S'\x00\x00\x00\x00'
p23
S'TObject'
p24
tp25
Rp26
sS'IT2CSideVSector3_119956_122520'
p27
g2
(S'\x00\x00\x00\x00'
p28
S'TObject'
p29
tp30
Rp31
sS'IT3TopX1Sector7_119956_122520'
p32
g2
(S'\x00\x00\x00\x00'
p33
S'TObject'
p34
tp35
Rp36
sS'IT2BottomUSector1_119956_122520'
p37
g2
(S'\x00\x00\x00\x00'
p38
S'TObject'
p39
tp40
Rp41
sS'IT1ASideUSector3_119956_122520'
p42
g2
(S'\x00\x00\x00\x00'
p43
S'TObject'
p44
tp45
Rp46
sS'IT2ASideUSector5_119956_122520'
p47
g2
(S'\x00\x00\x00\x00'
p48
S'TObject'
p49
tp50
Rp51
sS'IT1ASideX2Sector6_119956_122520'
p52
g2
(S'\x00\x00\x00\x00'
p53
S'TObject'
p54
tp55
Rp56
sS'IT1TopUSector2_119956_122520'
p57
g2
(S'\x00\x00\x00\x00'
p58
S'TObject'
p59
tp60
Rp61
sS'IT1ASideX1Sector6_119956_122520'
p62
g2
(S'\x00\x00\x00\x00'
p63
S'TObject'
p64
tp65
Rp66
sS'IT1CSideVSector7_119956_122520'
p67
g2
(S'\x00\x00\x00\x00'
p68
S'TObject'
p69
tp70
Rp71
sS'IT1CSideX2Sector7_119956_122520'
p72
g2
(S'\x00\x00\x00\x00'
p73
S'TObject'
p74
tp75
Rp76
sS'IT1ASideX1Sector7_119956_122520'
p77
g2
(S'\x00\x00\x00\x00'
p78
S'TObject'
p79
tp80
Rp81
sS'IT2BottomVSector7_119956_122520'
p82
g2
(S'\x00\x00\x00\x00'
p83
S'TObject'
p84
tp85
Rp86
sS'IT1TopUSector1_119956_122520'
p87
g2
(S'\x00\x00\x00\x00'
p88
S'TObject'
p89
tp90
Rp91
sS'IT3ASideX1Sector1_119956_122520'
p92
g2
(S'\x00\x00\x00\x00'
p93
S'TObject'
p94
tp95
Rp96
sS'IT3TopX1Sector1_119956_122520'
p97
g2
(S'\x00\x00\x00\x00'
p98
S'TObject'
p99
tp100
Rp101
sS'IT2BottomX1Sector4_119956_122520'
p102
g2
(S'\x00\x00\x00\x00'
p103
S'TObject'
p104
tp105
Rp106
sS'IT3CSideX1Sector7_119956_122520'
p107
g2
(S'\x00\x00\x00\x00'
p108
S'TObject'
p109
tp110
Rp111
sS'IT3BottomVSector4_119956_122520'
p112
g2
(S'\x00\x00\x00\x00'
p113
S'TObject'
p114
tp115
Rp116
sS'IT1TopX1Sector5_119956_122520'
p117
g2
(S'\x00\x00\x00\x00'
p118
S'TObject'
p119
tp120
Rp121
sS'IT3TopVSector7_119956_122520'
p122
g2
(S'\x00\x00\x00\x00'
p123
S'TObject'
p124
tp125
Rp126
sS'IT2BottomX2Sector2_119956_122520'
p127
g2
(S'\x00\x00\x00\x00'
p128
S'TObject'
p129
tp130
Rp131
sS'IT1TopX1Sector6_119956_122520'
p132
g2
(S'\x00\x00\x00\x00'
p133
S'TObject'
p134
tp135
Rp136
sS'IT2ASideX2Sector6_119956_122520'
p137
g2
(S'\x00\x00\x00\x00'
p138
S'TObject'
p139
tp140
Rp141
sS'IT1CSideVSector5_119956_122520'
p142
g2
(S'\x00\x00\x00\x00'
p143
S'TObject'
p144
tp145
Rp146
sS'IT1ASideX2Sector4_119956_122520'
p147
g2
(S'\x00\x00\x00\x00'
p148
S'TObject'
p149
tp150
Rp151
sS'IT1BottomX1Sector6_119956_122520'
p152
g2
(S'\x00\x00\x00\x00'
p153
S'TObject'
p154
tp155
Rp156
sS'IT3ASideX2Sector4_119956_122520'
p157
g2
(S'\x00\x00\x00\x00'
p158
S'TObject'
p159
tp160
Rp161
sS'IT3CSideUSector3_119956_122520'
p162
g2
(S'\x00\x00\x00\x00'
p163
S'TObject'
p164
tp165
Rp166
sS'IT1CSideX2Sector2_119956_122520'
p167
g2
(S'\x00\x00\x00\x00'
p168
S'TObject'
p169
tp170
Rp171
sS'IT3BottomX2Sector3_119956_122520'
p172
g2
(S'\x00\x00\x00\x00'
p173
S'TObject'
p174
tp175
Rp176
sS'IT2TopX1Sector6_119956_122520'
p177
g2
(S'\x00\x00\x00\x00'
p178
S'TObject'
p179
tp180
Rp181
sS'IT3BottomX2Sector4_119956_122520'
p182
g2
(S'\x00\x00\x00\x00'
p183
S'TObject'
p184
tp185
Rp186
sS'IT2TopUSector7_119956_122520'
p187
g2
(S'\x00\x00\x00\x00'
p188
S'TObject'
p189
tp190
Rp191
sS'IT2CSideUSector1_119956_122520'
p192
g2
(S'\x00\x00\x00\x00'
p193
S'TObject'
p194
tp195
Rp196
sS'IT1BottomVSector2_119956_122520'
p197
g2
(S'\x00\x00\x00\x00'
p198
S'TObject'
p199
tp200
Rp201
sS'IT1ASideVSector6_119956_122520'
p202
g2
(S'\x00\x00\x00\x00'
p203
S'TObject'
p204
tp205
Rp206
sS'IT2CSideVSector4_119956_122520'
p207
g2
(S'\x00\x00\x00\x00'
p208
S'TObject'
p209
tp210
Rp211
sS'IT3CSideX1Sector5_119956_122520'
p212
g2
(S'\x00\x00\x00\x00'
p213
S'TObject'
p214
tp215
Rp216
sS'IT2TopVSector2_119956_122520'
p217
g2
(S'\x00\x00\x00\x00'
p218
S'TObject'
p219
tp220
Rp221
sS'IT2ASideVSector2_119956_122520'
p222
g2
(S'\x00\x00\x00\x00'
p223
S'TObject'
p224
tp225
Rp226
sS'IT2BottomX2Sector5_119956_122520'
p227
g2
(S'\x00\x00\x00\x00'
p228
S'TObject'
p229
tp230
Rp231
sS'IT1ASideX1Sector5_119956_122520'
p232
g2
(S'\x00\x00\x00\x00'
p233
S'TObject'
p234
tp235
Rp236
sS'IT1BottomX2Sector5_119956_122520'
p237
g2
(S'\x00\x00\x00\x00'
p238
S'TObject'
p239
tp240
Rp241
sS'IT3ASideVSector5_119956_122520'
p242
g2
(S'\x00\x00\x00\x00'
p243
S'TObject'
p244
tp245
Rp246
sS'IT1ASideX1Sector4_119956_122520'
p247
g2
(S'\x00\x00\x00\x00'
p248
S'TObject'
p249
tp250
Rp251
sS'IT3BottomUSector7_119956_122520'
p252
g2
(S'\x00\x00\x00\x00'
p253
S'TObject'
p254
tp255
Rp256
sS'IT1TopVSector5_119956_122520'
p257
g2
(S'\x00\x00\x00\x00'
p258
S'TObject'
p259
tp260
Rp261
sS'IT3TopX1Sector2_119956_122520'
p262
g2
(S'\x00\x00\x00\x00'
p263
S'TObject'
p264
tp265
Rp266
sS'IT2BottomVSector2_119956_122520'
p267
g2
(S'\x00\x00\x00\x00'
p268
S'TObject'
p269
tp270
Rp271
sS'IT1BottomX1Sector3_119956_122520'
p272
g2
(S'\x00\x00\x00\x00'
p273
S'TObject'
p274
tp275
Rp276
sS'IT3ASideX2Sector6_119956_122520'
p277
g2
(S'\x00\x00\x00\x00'
p278
S'TObject'
p279
tp280
Rp281
sS'IT3CSideUSector1_119956_122520'
p282
g2
(S'\x00\x00\x00\x00'
p283
S'TObject'
p284
tp285
Rp286
sS'IT2CSideX2Sector7_119956_122520'
p287
g2
(S'\x00\x00\x00\x00'
p288
S'TObject'
p289
tp290
Rp291
sS'IT2BottomX1Sector5_119956_122520'
p292
g2
(S'\x00\x00\x00\x00'
p293
S'TObject'
p294
tp295
Rp296
sS'IT3TopX2Sector3_119956_122520'
p297
g2
(S'\x00\x00\x00\x00'
p298
S'TObject'
p299
tp300
Rp301
sS'IT3TopX2Sector6_119956_122520'
p302
g2
(S'\x00\x00\x00\x00'
p303
S'TObject'
p304
tp305
Rp306
sS'IT2BottomVSector4_119956_122520'
p307
g2
(S'\x00\x00\x00\x00'
p308
S'TObject'
p309
tp310
Rp311
sS'IT1ASideX2Sector5_119956_122520'
p312
g2
(S'\x00\x00\x00\x00'
p313
S'TObject'
p314
tp315
Rp316
sS'IT3CSideVSector2_119956_122520'
p317
g2
(S'\x00\x00\x00\x00'
p318
S'TObject'
p319
tp320
Rp321
sS'IT1CSideX2Sector6_119956_122520'
p322
g2
(S'\x00\x00\x00\x00'
p323
S'TObject'
p324
tp325
Rp326
sS'IT2BottomVSector5_119956_122520'
p327
g2
(S'\x00\x00\x00\x00'
p328
S'TObject'
p329
tp330
Rp331
sS'IT1TopUSector3_119956_122520'
p332
g2
(S'\x00\x00\x00\x00'
p333
S'TObject'
p334
tp335
Rp336
sS'IT1TopX1Sector2_119956_122520'
p337
g2
(S'\x00\x00\x00\x00'
p338
S'TObject'
p339
tp340
Rp341
sS'IT2BottomX2Sector4_119956_122520'
p342
g2
(S'\x00\x00\x00\x00'
p343
S'TObject'
p344
tp345
Rp346
sS'IT1CSideX1Sector4_119956_122520'
p347
g2
(S'\x00\x00\x00\x00'
p348
S'TObject'
p349
tp350
Rp351
sS'IT2TopX1Sector1_119956_122520'
p352
g2
(S'\x00\x00\x00\x00'
p353
S'TObject'
p354
tp355
Rp356
sS'IT1TopVSector1_119956_122520'
p357
g2
(S'\x00\x00\x00\x00'
p358
S'TObject'
p359
tp360
Rp361
sS'IT1CSideX1Sector6_119956_122520'
p362
g2
(S'\x00\x00\x00\x00'
p363
S'TObject'
p364
tp365
Rp366
sS'IT3TopVSector1_119956_122520'
p367
g2
(S'\x00\x00\x00\x00'
p368
S'TObject'
p369
tp370
Rp371
sS'IT2CSideX1Sector6_119956_122520'
p372
g2
(S'\x00\x00\x00\x00'
p373
S'TObject'
p374
tp375
Rp376
sS'IT1ASideX2Sector3_119956_122520'
p377
g2
(S'\x00\x00\x00\x00'
p378
S'TObject'
p379
tp380
Rp381
sS'IT3ASideUSector2_119956_122520'
p382
g2
(S'\x00\x00\x00\x00'
p383
S'TObject'
p384
tp385
Rp386
sS'IT1BottomX1Sector2_119956_122520'
p387
g2
(S'\x00\x00\x00\x00'
p388
S'TObject'
p389
tp390
Rp391
sS'IT1CSideVSector1_119956_122520'
p392
g2
(S'\x00\x00\x00\x00'
p393
S'TObject'
p394
tp395
Rp396
sS'IT1ASideVSector1_119956_122520'
p397
g2
(S'\x00\x00\x00\x00'
p398
S'TObject'
p399
tp400
Rp401
sS'IT3BottomX1Sector7_119956_122520'
p402
g2
(S'\x00\x00\x00\x00'
p403
S'TObject'
p404
tp405
Rp406
sS'IT3ASideVSector6_119956_122520'
p407
g2
(S'\x00\x00\x00\x00'
p408
S'TObject'
p409
tp410
Rp411
sS'IT2ASideUSector6_119956_122520'
p412
g2
(S'\x00\x00\x00\x00'
p413
S'TObject'
p414
tp415
Rp416
sS'IT3CSideVSector7_119956_122520'
p417
g2
(S'\x00\x00\x00\x00'
p418
S'TObject'
p419
tp420
Rp421
sS'IT2TopX2Sector5_119956_122520'
p422
g2
(S'\x00\x00\x00\x00'
p423
S'TObject'
p424
tp425
Rp426
sS'IT2BottomVSector6_119956_122520'
p427
g2
(S'\x00\x00\x00\x00'
p428
S'TObject'
p429
tp430
Rp431
sS'IT3BottomVSector1_119956_122520'
p432
g2
(S'\x00\x00\x00\x00'
p433
S'TObject'
p434
tp435
Rp436
sS'IT2ASideVSector1_119956_122520'
p437
g2
(S'\x00\x00\x00\x00'
p438
S'TObject'
p439
tp440
Rp441
sS'IT1TopVSector3_119956_122520'
p442
g2
(S'\x00\x00\x00\x00'
p443
S'TObject'
p444
tp445
Rp446
sS'IT2BottomX1Sector2_119956_122520'
p447
g2
(S'\x00\x00\x00\x00'
p448
S'TObject'
p449
tp450
Rp451
sS'IT2CSideX2Sector6_119956_122520'
p452
g2
(S'\x00\x00\x00\x00'
p453
S'TObject'
p454
tp455
Rp456
sS'IT1ASideUSector4_119956_122520'
p457
g2
(S'\x00\x00\x00\x00'
p458
S'TObject'
p459
tp460
Rp461
sS'IT2BottomUSector6_119956_122520'
p462
g2
(S'\x00\x00\x00\x00'
p463
S'TObject'
p464
tp465
Rp466
sS'IT1CSideX1Sector5_119956_122520'
p467
g2
(S'\x00\x00\x00\x00'
p468
S'TObject'
p469
tp470
Rp471
sS'IT2BottomX2Sector1_119956_122520'
p472
g2
(S'\x00\x00\x00\x00'
p473
S'TObject'
p474
tp475
Rp476
sS'IT3TopUSector5_119956_122520'
p477
g2
(S'\x00\x00\x00\x00'
p478
S'TObject'
p479
tp480
Rp481
sS'IT2TopUSector1_119956_122520'
p482
g2
(S'\x00\x00\x00\x00'
p483
S'TObject'
p484
tp485
Rp486
sS'IT2TopVSector1_119956_122520'
p487
g2
(S'\x00\x00\x00\x00'
p488
S'TObject'
p489
tp490
Rp491
sS'IT2ASideX1Sector7_119956_122520'
p492
g2
(S'\x00\x00\x00\x00'
p493
S'TObject'
p494
tp495
Rp496
sS'IT3TopVSector6_119956_122520'
p497
g2
(S'\x00\x00\x00\x00'
p498
S'TObject'
p499
tp500
Rp501
sS'IT2ASideX1Sector2_119956_122520'
p502
g2
(S'\x00\x00\x00\x00'
p503
S'TObject'
p504
tp505
Rp506
sS'IT2TopUSector5_119956_122520'
p507
g2
(S'\x00\x00\x00\x00'
p508
S'TObject'
p509
tp510
Rp511
sS'IT3TopX2Sector1_119956_122520'
p512
g2
(S'\x00\x00\x00\x00'
p513
S'TObject'
p514
tp515
Rp516
sS'IT3ASideX1Sector4_119956_122520'
p517
g2
(S'\x00\x00\x00\x00'
p518
S'TObject'
p519
tp520
Rp521
sS'IT2ASideX2Sector7_119956_122520'
p522
g2
(S'\x00\x00\x00\x00'
p523
S'TObject'
p524
tp525
Rp526
sS'IT1TopX1Sector1_119956_122520'
p527
g2
(S'\x00\x00\x00\x00'
p528
S'TObject'
p529
tp530
Rp531
sS'IT2CSideVSector1_119956_122520'
p532
g2
(S'\x00\x00\x00\x00'
p533
S'TObject'
p534
tp535
Rp536
sS'IT2ASideX1Sector6_119956_122520'
p537
g2
(S'\x00\x00\x00\x00'
p538
S'TObject'
p539
tp540
Rp541
sS'IT2TopX2Sector7_119956_122520'
p542
g2
(S'\x00\x00\x00\x00'
p543
S'TObject'
p544
tp545
Rp546
sS'IT3BottomX2Sector7_119956_122520'
p547
g2
(S'\x00\x00\x00\x00'
p548
S'TObject'
p549
tp550
Rp551
sS'IT2BottomVSector1_119956_122520'
p552
g2
(S'\x00\x00\x00\x00'
p553
S'TObject'
p554
tp555
Rp556
sS'IT2ASideX1Sector3_119956_122520'
p557
g2
(S'\x00\x00\x00\x00'
p558
S'TObject'
p559
tp560
Rp561
sS'IT2ASideUSector7_119956_122520'
p562
g2
(S'\x00\x00\x00\x00'
p563
S'TObject'
p564
tp565
Rp566
sS'IT1ASideVSector2_119956_122520'
p567
g2
(S'\x00\x00\x00\x00'
p568
S'TObject'
p569
tp570
Rp571
sS'IT1ASideX1Sector3_119956_122520'
p572
g2
(S'\x00\x00\x00\x00'
p573
S'TObject'
p574
tp575
Rp576
sS'IT3TopVSector3_119956_122520'
p577
g2
(S'\x00\x00\x00\x00'
p578
S'TObject'
p579
tp580
Rp581
sS'IT3CSideX1Sector3_119956_122520'
p582
g2
(S'\x00\x00\x00\x00'
p583
S'TObject'
p584
tp585
Rp586
sS'IT1TopX2Sector6_119956_122520'
p587
g2
(S'\x00\x00\x00\x00'
p588
S'TObject'
p589
tp590
Rp591
sS'IT3CSideX1Sector1_119956_122520'
p592
g2
(S'\x00\x00\x00\x00'
p593
S'TObject'
p594
tp595
Rp596
sS'IT3BottomVSector2_119956_122520'
p597
g2
(S'\x00\x00\x00\x00'
p598
S'TObject'
p599
tp600
Rp601
sS'IT2ASideX2Sector5_119956_122520'
p602
g2
(S'\x00\x00\x00\x00'
p603
S'TObject'
p604
tp605
Rp606
sS'IT2BottomX2Sector7_119956_122520'
p607
g2
(S'\x00\x00\x00\x00'
p608
S'TObject'
p609
tp610
Rp611
sS'IT3BottomUSector6_119956_122520'
p612
g2
(S'\x00\x00\x00\x00'
p613
S'TObject'
p614
tp615
Rp616
sS'IT2BottomX1Sector1_119956_122520'
p617
g2
(S'\x00\x00\x00\x00'
p618
S'TObject'
p619
tp620
Rp621
sS'IT1BottomUSector6_119956_122520'
p622
g2
(S'\x00\x00\x00\x00'
p623
S'TObject'
p624
tp625
Rp626
sS'IT1BottomX2Sector3_119956_122520'
p627
g2
(S'\x00\x00\x00\x00'
p628
S'TObject'
p629
tp630
Rp631
sS'IT3ASideUSector6_119956_122520'
p632
g2
(S'\x00\x00\x00\x00'
p633
S'TObject'
p634
tp635
Rp636
sS'IT2CSideX1Sector4_119956_122520'
p637
g2
(S'\x00\x00\x00\x00'
p638
S'TObject'
p639
tp640
Rp641
sS'IT3BottomVSector3_119956_122520'
p642
g2
(S'\x00\x00\x00\x00'
p643
S'TObject'
p644
tp645
Rp646
sS'IT2ASideVSector7_119956_122520'
p647
g2
(S'\x00\x00\x00\x00'
p648
S'TObject'
p649
tp650
Rp651
sS'IT2CSideUSector5_119956_122520'
p652
g2
(S'\x00\x00\x00\x00'
p653
S'TObject'
p654
tp655
Rp656
sS'IT3TopX1Sector5_119956_122520'
p657
g2
(S'\x00\x00\x00\x00'
p658
S'TObject'
p659
tp660
Rp661
sS'IT3BottomX1Sector1_119956_122520'
p662
g2
(S'\x00\x00\x00\x00'
p663
S'TObject'
p664
tp665
Rp666
sS'IT1TopX1Sector3_119956_122520'
p667
g2
(S'\x00\x00\x00\x00'
p668
S'TObject'
p669
tp670
Rp671
sS'IT2BottomUSector3_119956_122520'
p672
g2
(S'\x00\x00\x00\x00'
p673
S'TObject'
p674
tp675
Rp676
sS'IT1ASideUSector1_119956_122520'
p677
g2
(S'\x00\x00\x00\x00'
p678
S'TObject'
p679
tp680
Rp681
sS'IT2ASideVSector6_119956_122520'
p682
g2
(S'\x00\x00\x00\x00'
p683
S'TObject'
p684
tp685
Rp686
sS'IT1ASideX1Sector1_119956_122520'
p687
g2
(S'\x00\x00\x00\x00'
p688
S'TObject'
p689
tp690
Rp691
sS'IT1TopX2Sector4_119956_122520'
p692
g2
(S'\x00\x00\x00\x00'
p693
S'TObject'
p694
tp695
Rp696
sS'IT2TopVSector4_119956_122520'
p697
g2
(S'\x00\x00\x00\x00'
p698
S'TObject'
p699
tp700
Rp701
sS'IT1TopX2Sector2_119956_122520'
p702
g2
(S'\x00\x00\x00\x00'
p703
S'TObject'
p704
tp705
Rp706
sS'IT2TopVSector6_119956_122520'
p707
g2
(S'\x00\x00\x00\x00'
p708
S'TObject'
p709
tp710
Rp711
sS'IT3TopUSector1_119956_122520'
p712
g2
(S'\x00\x00\x00\x00'
p713
S'TObject'
p714
tp715
Rp716
sS'IT3TopUSector7_119956_122520'
p717
g2
(S'\x00\x00\x00\x00'
p718
S'TObject'
p719
tp720
Rp721
sS'IT2ASideX1Sector1_119956_122520'
p722
g2
(S'\x00\x00\x00\x00'
p723
S'TObject'
p724
tp725
Rp726
sS'IT3ASideUSector4_119956_122520'
p727
g2
(S'\x00\x00\x00\x00'
p728
S'TObject'
p729
tp730
Rp731
sS'IT1ASideVSector3_119956_122520'
p732
g2
(S'\x00\x00\x00\x00'
p733
S'TObject'
p734
tp735
Rp736
sS'IT1CSideX2Sector3_119956_122520'
p737
g2
(S'\x00\x00\x00\x00'
p738
S'TObject'
p739
tp740
Rp741
sS'IT2TopX1Sector5_119956_122520'
p742
g2
(S'\x00\x00\x00\x00'
p743
S'TObject'
p744
tp745
Rp746
sS'IT1TopUSector6_119956_122520'
p747
g2
(S'\x00\x00\x00\x00'
p748
S'TObject'
p749
tp750
Rp751
sS'IT1TopX2Sector1_119956_122520'
p752
g2
(S'\x00\x00\x00\x00'
p753
S'TObject'
p754
tp755
Rp756
sS'IT2CSideX2Sector3_119956_122520'
p757
g2
(S'\x00\x00\x00\x00'
p758
S'TObject'
p759
tp760
Rp761
sS'IT1BottomUSector7_119956_122520'
p762
g2
(S'\x00\x00\x00\x00'
p763
S'TObject'
p764
tp765
Rp766
sS'IT3BottomX1Sector3_119956_122520'
p767
g2
(S'\x00\x00\x00\x00'
p768
S'TObject'
p769
tp770
Rp771
sS'IT3BottomX2Sector1_119956_122520'
p772
g2
(S'\x00\x00\x00\x00'
p773
S'TObject'
p774
tp775
Rp776
sS'IT2ASideVSector4_119956_122520'
p777
g2
(S'\x00\x00\x00\x00'
p778
S'TObject'
p779
tp780
Rp781
sS'IT1CSideX2Sector5_119956_122520'
p782
g2
(S'\x00\x00\x00\x00'
p783
S'TObject'
p784
tp785
Rp786
sS'IT2CSideVSector2_119956_122520'
p787
g2
(S'\x00\x00\x00\x00'
p788
S'TObject'
p789
tp790
Rp791
sS'IT2ASideUSector3_119956_122520'
p792
g2
(S'\x00\x00\x00\x00'
p793
S'TObject'
p794
tp795
Rp796
sS'IT2BottomX1Sector3_119956_122520'
p797
g2
(S'\x00\x00\x00\x00'
p798
S'TObject'
p799
tp800
Rp801
sS'IT1BottomX2Sector2_119956_122520'
p802
g2
(S'\x00\x00\x00\x00'
p803
S'TObject'
p804
tp805
Rp806
sS'IT2CSideUSector6_119956_122520'
p807
g2
(S'\x00\x00\x00\x00'
p808
S'TObject'
p809
tp810
Rp811
sS'IT3BottomUSector1_119956_122520'
p812
g2
(S'\x00\x00\x00\x00'
p813
S'TObject'
p814
tp815
Rp816
sS'IT3CSideX2Sector4_119956_122520'
p817
g2
(S'\x00\x00\x00\x00'
p818
S'TObject'
p819
tp820
Rp821
sS'IT1BottomX1Sector4_119956_122520'
p822
g2
(S'\x00\x00\x00\x00'
p823
S'TObject'
p824
tp825
Rp826
sS'IT1BottomUSector1_119956_122520'
p827
g2
(S'\x00\x00\x00\x00'
p828
S'TObject'
p829
tp830
Rp831
sS'IT1CSideUSector1_119956_122520'
p832
g2
(S'\x00\x00\x00\x00'
p833
S'TObject'
p834
tp835
Rp836
sS'IT3BottomX2Sector2_119956_122520'
p837
g2
(S'\x00\x00\x00\x00'
p838
S'TObject'
p839
tp840
Rp841
sS'IT3ASideX2Sector7_119956_122520'
p842
g2
(S'\x00\x00\x00\x00'
p843
S'TObject'
p844
tp845
Rp846
sS'IT1CSideUSector5_119956_122520'
p847
g2
(S'\x00\x00\x00\x00'
p848
S'TObject'
p849
tp850
Rp851
sS'IT2TopX2Sector2_119956_122520'
p852
g2
(S'\x00\x00\x00\x00'
p853
S'TObject'
p854
tp855
Rp856
sS'IT3ASideVSector7_119956_122520'
p857
g2
(S'\x00\x00\x00\x00'
p858
S'TObject'
p859
tp860
Rp861
sS'IT1CSideX1Sector2_119956_122520'
p862
g2
(S'\x00\x00\x00\x00'
p863
S'TObject'
p864
tp865
Rp866
sS'IT1ASideX2Sector7_119956_122520'
p867
g2
(S'\x00\x00\x00\x00'
p868
S'TObject'
p869
tp870
Rp871
sS'IT1CSideUSector2_119956_122520'
p872
g2
(S'\x00\x00\x00\x00'
p873
S'TObject'
p874
tp875
Rp876
sS'IT3CSideX2Sector5_119956_122520'
p877
g2
(S'\x00\x00\x00\x00'
p878
S'TObject'
p879
tp880
Rp881
sS'IT3TopUSector3_119956_122520'
p882
g2
(S'\x00\x00\x00\x00'
p883
S'TObject'
p884
tp885
Rp886
sS'IT2BottomUSector4_119956_122520'
p887
g2
(S'\x00\x00\x00\x00'
p888
S'TObject'
p889
tp890
Rp891
sS'IT3ASideUSector7_119956_122520'
p892
g2
(S'\x00\x00\x00\x00'
p893
S'TObject'
p894
tp895
Rp896
sS'IT1CSideUSector4_119956_122520'
p897
g2
(S'\x00\x00\x00\x00'
p898
S'TObject'
p899
tp900
Rp901
sS'IT3CSideVSector1_119956_122520'
p902
g2
(S'\x00\x00\x00\x00'
p903
S'TObject'
p904
tp905
Rp906
sS'IT2TopX2Sector3_119956_122520'
p907
g2
(S'\x00\x00\x00\x00'
p908
S'TObject'
p909
tp910
Rp911
sS'IT1CSideX1Sector1_119956_122520'
p912
g2
(S'\x00\x00\x00\x00'
p913
S'TObject'
p914
tp915
Rp916
sS'IT3ASideVSector4_119956_122520'
p917
g2
(S'\x00\x00\x00\x00'
p918
S'TObject'
p919
tp920
Rp921
sS'IT2BottomUSector5_119956_122520'
p922
g2
(S'\x00\x00\x00\x00'
p923
S'TObject'
p924
tp925
Rp926
sS'IT1BottomVSector5_119956_122520'
p927
g2
(S'\x00\x00\x00\x00'
p928
S'TObject'
p929
tp930
Rp931
sS'IT1BottomX1Sector1_119956_122520'
p932
g2
(S'\x00\x00\x00\x00'
p933
S'TObject'
p934
tp935
Rp936
sS'IT3ASideX1Sector3_119956_122520'
p937
g2
(S'\x00\x00\x00\x00'
p938
S'TObject'
p939
tp940
Rp941
sS'IT3BottomX1Sector2_119956_122520'
p942
g2
(S'\x00\x00\x00\x00'
p943
S'TObject'
p944
tp945
Rp946
sS'IT3CSideUSector2_119956_122520'
p947
g2
(S'\x00\x00\x00\x00'
p948
S'TObject'
p949
tp950
Rp951
sS'IT3ASideX2Sector5_119956_122520'
p952
g2
(S'\x00\x00\x00\x00'
p953
S'TObject'
p954
tp955
Rp956
sS'IT1TopX2Sector5_119956_122520'
p957
g2
(S'\x00\x00\x00\x00'
p958
S'TObject'
p959
tp960
Rp961
sS'IT1TopUSector4_119956_122520'
p962
g2
(S'\x00\x00\x00\x00'
p963
S'TObject'
p964
tp965
Rp966
sS'IT2BottomVSector3_119956_122520'
p967
g2
(S'\x00\x00\x00\x00'
p968
S'TObject'
p969
tp970
Rp971
sS'IT1BottomVSector1_119956_122520'
p972
g2
(S'\x00\x00\x00\x00'
p973
S'TObject'
p974
tp975
Rp976
sS'IT1BottomVSector7_119956_122520'
p977
g2
(S'\x00\x00\x00\x00'
p978
S'TObject'
p979
tp980
Rp981
sS'IT1CSideVSector6_119956_122520'
p982
g2
(S'\x00\x00\x00\x00'
p983
S'TObject'
p984
tp985
Rp986
sS'IT1BottomX1Sector7_119956_122520'
p987
g2
(S'\x00\x00\x00\x00'
p988
S'TObject'
p989
tp990
Rp991
sS'IT2TopUSector3_119956_122520'
p992
g2
(S'\x00\x00\x00\x00'
p993
S'TObject'
p994
tp995
Rp996
sS'IT3BottomVSector5_119956_122520'
p997
g2
(S'\x00\x00\x00\x00'
p998
S'TObject'
p999
tp1000
Rp1001
sS'IT1ASideUSector7_119956_122520'
p1002
g2
(S'\x00\x00\x00\x00'
p1003
S'TObject'
p1004
tp1005
Rp1006
sS'IT3CSideVSector4_119956_122520'
p1007
g2
(S'\x00\x00\x00\x00'
p1008
S'TObject'
p1009
tp1010
Rp1011
sS'IT2TopX2Sector1_119956_122520'
p1012
g2
(S'\x00\x00\x00\x00'
p1013
S'TObject'
p1014
tp1015
Rp1016
sS'IT1CSideUSector6_119956_122520'
p1017
g2
(S'\x00\x00\x00\x00'
p1018
S'TObject'
p1019
tp1020
Rp1021
sS'IT3BottomUSector5_119956_122520'
p1022
g2
(S'\x00\x00\x00\x00'
p1023
S'TObject'
p1024
tp1025
Rp1026
sS'IT3TopX1Sector4_119956_122520'
p1027
g2
(S'\x00\x00\x00\x00'
p1028
S'TObject'
p1029
tp1030
Rp1031
sS'IT1BottomUSector3_119956_122520'
p1032
g2
(S'\x00\x00\x00\x00'
p1033
S'TObject'
p1034
tp1035
Rp1036
sS'IT2BottomUSector2_119956_122520'
p1037
g2
(S'\x00\x00\x00\x00'
p1038
S'TObject'
p1039
tp1040
Rp1041
sS'IT1ASideUSector2_119956_122520'
p1042
g2
(S'\x00\x00\x00\x00'
p1043
S'TObject'
p1044
tp1045
Rp1046
sS'IT2CSideUSector7_119956_122520'
p1047
g2
(S'\x00\x00\x00\x00'
p1048
S'TObject'
p1049
tp1050
Rp1051
sS'IT1BottomUSector4_119956_122520'
p1052
g2
(S'\x00\x00\x00\x00'
p1053
S'TObject'
p1054
tp1055
Rp1056
sS'IT1TopX2Sector7_119956_122520'
p1057
g2
(S'\x00\x00\x00\x00'
p1058
S'TObject'
p1059
tp1060
Rp1061
sS'IT2CSideX1Sector2_119956_122520'
p1062
g2
(S'\x00\x00\x00\x00'
p1063
S'TObject'
p1064
tp1065
Rp1066
sS'IT2CSideVSector6_119956_122520'
p1067
g2
(S'\x00\x00\x00\x00'
p1068
S'TObject'
p1069
tp1070
Rp1071
sS'IT2ASideVSector5_119956_122520'
p1072
g2
(S'\x00\x00\x00\x00'
p1073
S'TObject'
p1074
tp1075
Rp1076
sS'IT3ASideUSector1_119956_122520'
p1077
g2
(S'\x00\x00\x00\x00'
p1078
S'TObject'
p1079
tp1080
Rp1081
sS'IT1ASideVSector7_119956_122520'
p1082
g2
(S'\x00\x00\x00\x00'
p1083
S'TObject'
p1084
tp1085
Rp1086
sS'IT1CSideUSector7_119956_122520'
p1087
g2
(S'\x00\x00\x00\x00'
p1088
S'TObject'
p1089
tp1090
Rp1091
sS'IT1TopX1Sector4_119956_122520'
p1092
g2
(S'\x00\x00\x00\x00'
p1093
S'TObject'
p1094
tp1095
Rp1096
sS'IT2CSideX2Sector4_119956_122520'
p1097
g2
(S'\x00\x00\x00\x00'
p1098
S'TObject'
p1099
tp1100
Rp1101
sS'IT1CSideX1Sector7_119956_122520'
p1102
g2
(S'\x00\x00\x00\x00'
p1103
S'TObject'
p1104
tp1105
Rp1106
sS'IT3ASideVSector2_119956_122520'
p1107
g2
(S'\x00\x00\x00\x00'
p1108
S'TObject'
p1109
tp1110
Rp1111
sS'IT3BottomVSector7_119956_122520'
p1112
g2
(S'\x00\x00\x00\x00'
p1113
S'TObject'
p1114
tp1115
Rp1116
sS'IT1BottomX2Sector1_119956_122520'
p1117
g2
(S'\x00\x00\x00\x00'
p1118
S'TObject'
p1119
tp1120
Rp1121
sS'IT2CSideX2Sector1_119956_122520'
p1122
g2
(S'\x00\x00\x00\x00'
p1123
S'TObject'
p1124
tp1125
Rp1126
sS'IT1TopX1Sector7_119956_122520'
p1127
g2
(S'\x00\x00\x00\x00'
p1128
S'TObject'
p1129
tp1130
Rp1131
sS'IT3BottomUSector4_119956_122520'
p1132
g2
(S'\x00\x00\x00\x00'
p1133
S'TObject'
p1134
tp1135
Rp1136
sS'IT1ASideX2Sector2_119956_122520'
p1137
g2
(S'\x00\x00\x00\x00'
p1138
S'TObject'
p1139
tp1140
Rp1141
sS'IT1CSideVSector4_119956_122520'
p1142
g2
(S'\x00\x00\x00\x00'
p1143
S'TObject'
p1144
tp1145
Rp1146
sS'IT3TopUSector6_119956_122520'
p1147
g2
(S'\x00\x00\x00\x00'
p1148
S'TObject'
p1149
tp1150
Rp1151
sS'IT3ASideVSector3_119956_122520'
p1152
g2
(S'\x00\x00\x00\x00'
p1153
S'TObject'
p1154
tp1155
Rp1156
sS'IT3TopUSector4_119956_122520'
p1157
g2
(S'\x00\x00\x00\x00'
p1158
S'TObject'
p1159
tp1160
Rp1161
sS'IT3TopVSector2_119956_122520'
p1162
g2
(S'\x00\x00\x00\x00'
p1163
S'TObject'
p1164
tp1165
Rp1166
sS'IT1CSideX2Sector4_119956_122520'
p1167
g2
(S'\x00\x00\x00\x00'
p1168
S'TObject'
p1169
tp1170
Rp1171
sS'IT1BottomX2Sector7_119956_122520'
p1172
g2
(S'\x00\x00\x00\x00'
p1173
S'TObject'
p1174
tp1175
Rp1176
sS'IT2TopVSector7_119956_122520'
p1177
g2
(S'\x00\x00\x00\x00'
p1178
S'TObject'
p1179
tp1180
Rp1181
sS'IT2CSideX1Sector3_119956_122520'
p1182
g2
(S'\x00\x00\x00\x00'
p1183
S'TObject'
p1184
tp1185
Rp1186
sS'IT2BottomX1Sector6_119956_122520'
p1187
g2
(S'\x00\x00\x00\x00'
p1188
S'TObject'
p1189
tp1190
Rp1191
sS'IT2TopUSector6_119956_122520'
p1192
g2
(S'\x00\x00\x00\x00'
p1193
S'TObject'
p1194
tp1195
Rp1196
sS'IT2BottomX1Sector7_119956_122520'
p1197
g2
(S'\x00\x00\x00\x00'
p1198
S'TObject'
p1199
tp1200
Rp1201
sS'IT2CSideVSector5_119956_122520'
p1202
g2
(S'\x00\x00\x00\x00'
p1203
S'TObject'
p1204
tp1205
Rp1206
sS'IT3TopVSector4_119956_122520'
p1207
g2
(S'\x00\x00\x00\x00'
p1208
S'TObject'
p1209
tp1210
Rp1211
sS'IT1TopVSector4_119956_122520'
p1212
g2
(S'\x00\x00\x00\x00'
p1213
S'TObject'
p1214
tp1215
Rp1216
sS'IT1TopUSector5_119956_122520'
p1217
g2
(S'\x00\x00\x00\x00'
p1218
S'TObject'
p1219
tp1220
Rp1221
sS'IT3CSideX2Sector1_119956_122520'
p1222
g2
(S'\x00\x00\x00\x00'
p1223
S'TObject'
p1224
tp1225
Rp1226
sS'IT3CSideX2Sector6_119956_122520'
p1227
g2
(S'\x00\x00\x00\x00'
p1228
S'TObject'
p1229
tp1230
Rp1231
sS'IT3TopX1Sector3_119956_122520'
p1232
g2
(S'\x00\x00\x00\x00'
p1233
S'TObject'
p1234
tp1235
Rp1236
sS'IT1CSideX2Sector1_119956_122520'
p1237
g2
(S'\x00\x00\x00\x00'
p1238
S'TObject'
p1239
tp1240
Rp1241
sS'IT1CSideVSector2_119956_122520'
p1242
g2
(S'\x00\x00\x00\x00'
p1243
S'TObject'
p1244
tp1245
Rp1246
sS'IT1BottomUSector2_119956_122520'
p1247
g2
(S'\x00\x00\x00\x00'
p1248
S'TObject'
p1249
tp1250
Rp1251
sS'IT3CSideUSector7_119956_122520'
p1252
g2
(S'\x00\x00\x00\x00'
p1253
S'TObject'
p1254
tp1255
Rp1256
sS'IT1BottomVSector6_119956_122520'
p1257
g2
(S'\x00\x00\x00\x00'
p1258
S'TObject'
p1259
tp1260
Rp1261
sS'IT3ASideUSector3_119956_122520'
p1262
g2
(S'\x00\x00\x00\x00'
p1263
S'TObject'
p1264
tp1265
Rp1266
sS'IT3CSideX2Sector2_119956_122520'
p1267
g2
(S'\x00\x00\x00\x00'
p1268
S'TObject'
p1269
tp1270
Rp1271
sS'IT3BottomX1Sector4_119956_122520'
p1272
g2
(S'\x00\x00\x00\x00'
p1273
S'TObject'
p1274
tp1275
Rp1276
sS'IT3ASideX1Sector7_119956_122520'
p1277
g2
(S'\x00\x00\x00\x00'
p1278
S'TObject'
p1279
tp1280
Rp1281
sS'IT3BottomX1Sector6_119956_122520'
p1282
g2
(S'\x00\x00\x00\x00'
p1283
S'TObject'
p1284
tp1285
Rp1286
sS'IT1TopVSector6_119956_122520'
p1287
g2
(S'\x00\x00\x00\x00'
p1288
S'TObject'
p1289
tp1290
Rp1291
sS'IT3BottomUSector2_119956_122520'
p1292
g2
(S'\x00\x00\x00\x00'
p1293
S'TObject'
p1294
tp1295
Rp1296
sS'IT3CSideVSector6_119956_122520'
p1297
g2
(S'\x00\x00\x00\x00'
p1298
S'TObject'
p1299
tp1300
Rp1301
sS'IT2CSideVSector7_119956_122520'
p1302
g2
(S'\x00\x00\x00\x00'
p1303
S'TObject'
p1304
tp1305
Rp1306
sS'IT3CSideUSector6_119956_122520'
p1307
g2
(S'\x00\x00\x00\x00'
p1308
S'TObject'
p1309
tp1310
Rp1311
sS'IT3ASideX2Sector1_119956_122520'
p1312
g2
(S'\x00\x00\x00\x00'
p1313
S'TObject'
p1314
tp1315
Rp1316
sS'IT1BottomX2Sector4_119956_122520'
p1317
g2
(S'\x00\x00\x00\x00'
p1318
S'TObject'
p1319
tp1320
Rp1321
sS'IT1ASideX2Sector1_119956_122520'
p1322
g2
(S'\x00\x00\x00\x00'
p1323
S'TObject'
p1324
tp1325
Rp1326
sS'IT2CSideUSector4_119956_122520'
p1327
g2
(S'\x00\x00\x00\x00'
p1328
S'TObject'
p1329
tp1330
Rp1331
sS'IT3ASideX1Sector6_119956_122520'
p1332
g2
(S'\x00\x00\x00\x00'
p1333
S'TObject'
p1334
tp1335
Rp1336
sS'IT3CSideX1Sector2_119956_122520'
p1337
g2
(S'\x00\x00\x00\x00'
p1338
S'TObject'
p1339
tp1340
Rp1341
sS'IT2BottomX2Sector3_119956_122520'
p1342
g2
(S'\x00\x00\x00\x00'
p1343
S'TObject'
p1344
tp1345
Rp1346
sS'IT1ASideX1Sector2_119956_122520'
p1347
g2
(S'\x00\x00\x00\x00'
p1348
S'TObject'
p1349
tp1350
Rp1351
sS'IT2TopX1Sector7_119956_122520'
p1352
g2
(S'\x00\x00\x00\x00'
p1353
S'TObject'
p1354
tp1355
Rp1356
sS'IT3ASideUSector5_119956_122520'
p1357
g2
(S'\x00\x00\x00\x00'
p1358
S'TObject'
p1359
tp1360
Rp1361
sS'IT3ASideX1Sector5_119956_122520'
p1362
g2
(S'\x00\x00\x00\x00'
p1363
S'TObject'
p1364
tp1365
Rp1366
sS'IT2ASideX2Sector1_119956_122520'
p1367
g2
(S'\x00\x00\x00\x00'
p1368
S'TObject'
p1369
tp1370
Rp1371
sS'IT3CSideX2Sector7_119956_122520'
p1372
g2
(S'\x00\x00\x00\x00'
p1373
S'TObject'
p1374
tp1375
Rp1376
sS'IT3TopX2Sector7_119956_122520'
p1377
g2
(S'\x00\x00\x00\x00'
p1378
S'TObject'
p1379
tp1380
Rp1381
sS'IT3ASideX1Sector2_119956_122520'
p1382
g2
(S'\x00\x00\x00\x00'
p1383
S'TObject'
p1384
tp1385
Rp1386
sS'IT2ASideX1Sector5_119956_122520'
p1387
g2
(S'\x00\x00\x00\x00'
p1388
S'TObject'
p1389
tp1390
Rp1391
sS'IT2TopX2Sector6_119956_122520'
p1392
g2
(S'\x00\x00\x00\x00'
p1393
S'TObject'
p1394
tp1395
Rp1396
sS'IT2CSideX1Sector1_119956_122520'
p1397
g2
(S'\x00\x00\x00\x00'
p1398
S'TObject'
p1399
tp1400
Rp1401
sS'IT1TopX2Sector3_119956_122520'
p1402
g2
(S'\x00\x00\x00\x00'
p1403
S'TObject'
p1404
tp1405
Rp1406
sS'IT2ASideVSector3_119956_122520'
p1407
g2
(S'\x00\x00\x00\x00'
p1408
S'TObject'
p1409
tp1410
Rp1411
sS'IT3CSideUSector4_119956_122520'
p1412
g2
(S'\x00\x00\x00\x00'
p1413
S'TObject'
p1414
tp1415
Rp1416
sS'IT3ASideX2Sector3_119956_122520'
p1417
g2
(S'\x00\x00\x00\x00'
p1418
S'TObject'
p1419
tp1420
Rp1421
sS'IT2ASideUSector2_119956_122520'
p1422
g2
(S'\x00\x00\x00\x00'
p1423
S'TObject'
p1424
tp1425
Rp1426
sS'IT1BottomVSector3_119956_122520'
p1427
g2
(S'\x00\x00\x00\x00'
p1428
S'TObject'
p1429
tp1430
Rp1431
sS'IT2CSideX2Sector5_119956_122520'
p1432
g2
(S'\x00\x00\x00\x00'
p1433
S'TObject'
p1434
tp1435
Rp1436
sS'IT3BottomUSector3_119956_122520'
p1437
g2
(S'\x00\x00\x00\x00'
p1438
S'TObject'
p1439
tp1440
Rp1441
sS'IT3ASideVSector1_119956_122520'
p1442
g2
(S'\x00\x00\x00\x00'
p1443
S'TObject'
p1444
tp1445
Rp1446
sS'IT2CSideX1Sector5_119956_122520'
p1447
g2
(S'\x00\x00\x00\x00'
p1448
S'TObject'
p1449
tp1450
Rp1451
sS'IT2TopX1Sector2_119956_122520'
p1452
g2
(S'\x00\x00\x00\x00'
p1453
S'TObject'
p1454
tp1455
Rp1456
sS'IT3BottomX2Sector5_119956_122520'
p1457
g2
(S'\x00\x00\x00\x00'
p1458
S'TObject'
p1459
tp1460
Rp1461
sS'IT3ASideX2Sector2_119956_122520'
p1462
g2
(S'\x00\x00\x00\x00'
p1463
S'TObject'
p1464
tp1465
Rp1466
sS'IT3CSideUSector5_119956_122520'
p1467
g2
(S'\x00\x00\x00\x00'
p1468
S'TObject'
p1469
tp1470
Rp1471
sS'IT1ASideUSector6_119956_122520'
p1472
g2
(S'\x00\x00\x00\x00'
p1473
S'TObject'
p1474
tp1475
Rp1476
sS'IT3TopUSector2_119956_122520'
p1477
g2
(S'\x00\x00\x00\x00'
p1478
S'TObject'
p1479
tp1480
Rp1481
sS'IT1BottomVSector4_119956_122520'
p1482
g2
(S'\x00\x00\x00\x00'
p1483
S'TObject'
p1484
tp1485
Rp1486
sS'IT1TopVSector2_119956_122520'
p1487
g2
(S'\x00\x00\x00\x00'
p1488
S'TObject'
p1489
tp1490
Rp1491
sS'IT2CSideUSector2_119956_122520'
p1492
g2
(S'\x00\x00\x00\x00'
p1493
S'TObject'
p1494
tp1495
Rp1496
sS'IT2TopX2Sector4_119956_122520'
p1497
g2
(S'\x00\x00\x00\x00'
p1498
S'TObject'
p1499
tp1500
Rp1501
sS'IT3CSideX1Sector6_119956_122520'
p1502
g2
(S'\x00\x00\x00\x00'
p1503
S'TObject'
p1504
tp1505
Rp1506
sS'IT2TopX1Sector3_119956_122520'
p1507
g2
(S'\x00\x00\x00\x00'
p1508
S'TObject'
p1509
tp1510
Rp1511
sS'IT1CSideUSector3_119956_122520'
p1512
g2
(S'\x00\x00\x00\x00'
p1513
S'TObject'
p1514
tp1515
Rp1516
sS'IT1BottomX2Sector6_119956_122520'
p1517
g2
(S'\x00\x00\x00\x00'
p1518
S'TObject'
p1519
tp1520
Rp1521
sS'IT1BottomX1Sector5_119956_122520'
p1522
g2
(S'\x00\x00\x00\x00'
p1523
S'TObject'
p1524
tp1525
Rp1526
sS'IT3BottomX1Sector5_119956_122520'
p1527
g2
(S'\x00\x00\x00\x00'
p1528
S'TObject'
p1529
tp1530
Rp1531
sS'IT3TopX1Sector6_119956_122520'
p1532
g2
(S'\x00\x00\x00\x00'
p1533
S'TObject'
p1534
tp1535
Rp1536
sS'IT1BottomUSector5_119956_122520'
p1537
g2
(S'\x00\x00\x00\x00'
p1538
S'TObject'
p1539
tp1540
Rp1541
sS'IT1CSideVSector3_119956_122520'
p1542
g2
(S'\x00\x00\x00\x00'
p1543
S'TObject'
p1544
tp1545
Rp1546
sS'IT2CSideUSector3_119956_122520'
p1547
g2
(S'\x00\x00\x00\x00'
p1548
S'TObject'
p1549
tp1550
Rp1551
sS'IT2TopUSector2_119956_122520'
p1552
g2
(S'\x00\x00\x00\x00'
p1553
S'TObject'
p1554
tp1555
Rp1556
sS'IT1ASideVSector4_119956_122520'
p1557
g2
(S'\x00\x00\x00\x00'
p1558
S'TObject'
p1559
tp1560
Rp1561
sS'IT3CSideVSector5_119956_122520'
p1562
g2
(S'\x00\x00\x00\x00'
p1563
S'TObject'
p1564
tp1565
Rp1566
sS'IT1ASideUSector5_119956_122520'
p1567
g2
(S'\x00\x00\x00\x00'
p1568
S'TObject'
p1569
tp1570
Rp1571
sS'IT2ASideUSector1_119956_122520'
p1572
g2
(S'\x00\x00\x00\x00'
p1573
S'TObject'
p1574
tp1575
Rp1576
sS'IT1ASideVSector5_119956_122520'
p1577
g2
(S'\x00\x00\x00\x00'
p1578
S'TObject'
p1579
tp1580
Rp1581
sS'IT3TopVSector5_119956_122520'
p1582
g2
(S'\x00\x00\x00\x00'
p1583
S'TObject'
p1584
tp1585
Rp1586
sS'IT2ASideX2Sector4_119956_122520'
p1587
g2
(S'\x00\x00\x00\x00'
p1588
S'TObject'
p1589
tp1590
Rp1591
sS'IT1TopUSector7_119956_122520'
p1592
g2
(S'\x00\x00\x00\x00'
p1593
S'TObject'
p1594
tp1595
Rp1596
sS'IT3TopX2Sector2_119956_122520'
p1597
g2
(S'\x00\x00\x00\x00'
p1598
S'TObject'
p1599
tp1600
Rp1601
sS'IT3TopX2Sector5_119956_122520'
p1602
g2
(S'\x00\x00\x00\x00'
p1603
S'TObject'
p1604
tp1605
Rp1606
sS'IT2TopVSector3_119956_122520'
p1607
g2
(S'\x00\x00\x00\x00'
p1608
S'TObject'
p1609
tp1610
Rp1611
sS'IT2ASideX2Sector3_119956_122520'
p1612
g2
(S'\x00\x00\x00\x00'
p1613
S'TObject'
p1614
tp1615
Rp1616
sS'IT2CSideX2Sector2_119956_122520'
p1617
g2
(S'\x00\x00\x00\x00'
p1618
S'TObject'
p1619
tp1620
Rp1621
sS'IT2BottomX2Sector6_119956_122520'
p1622
g2
(S'\x00\x00\x00\x00'
p1623
S'TObject'
p1624
tp1625
Rp1626
sS'IT2TopUSector4_119956_122520'
p1627
g2
(S'\x00\x00\x00\x00'
p1628
S'TObject'
p1629
tp1630
Rp1631
sS'IT3CSideX1Sector4_119956_122520'
p1632
g2
(S'\x00\x00\x00\x00'
p1633
S'TObject'
p1634
tp1635
Rp1636
sS'IT3CSideVSector3_119956_122520'
p1637
g2
(S'\x00\x00\x00\x00'
p1638
S'TObject'
p1639
tp1640
Rp1641
sS'IT1CSideX1Sector3_119956_122520'
p1642
g2
(S'\x00\x00\x00\x00'
p1643
S'TObject'
p1644
tp1645
Rp1646
sS'IT3BottomX2Sector6_119956_122520'
p1647
g2
(S'\x00\x00\x00\x00'
p1648
S'TObject'
p1649
tp1650
Rp1651
sS'IT3CSideX2Sector3_119956_122520'
p1652
g2
(S'\x00\x00\x00\x00'
p1653
S'TObject'
p1654
tp1655
Rp1656
sS'IT2BottomUSector7_119956_122520'
p1657
g2
(S'\x00\x00\x00\x00'
p1658
S'TObject'
p1659
tp1660
Rp1661
sS'IT2ASideUSector4_119956_122520'
p1662
g2
(S'\x00\x00\x00\x00'
p1663
S'TObject'
p1664
tp1665
Rp1666
sS'IT1TopVSector7_119956_122520'
p1667
g2
(S'\x00\x00\x00\x00'
p1668
S'TObject'
p1669
tp1670
Rp1671
sS'IT3TopX2Sector4_119956_122520'
p1672
g2
(S'\x00\x00\x00\x00'
p1673
S'TObject'
p1674
tp1675
Rp1676
sS'IT2ASideX2Sector2_119956_122520'
p1677
g2
(S'\x00\x00\x00\x00'
p1678
S'TObject'
p1679
tp1680
Rp1681
s.