(dp0
S'TTaXRegionCSector18_114316_115464'
p1
clibPyROOT
_ObjectProxy__expand__
p2
(S'\x00\x00\x00\x00'
p3
S'TObject'
p4
tp5
Rp6
sS'TTaURegionBSector11_114316_115464'
p7
g2
(S'\x00\x00\x00\x00'
p8
S'TObject'
p9
tp10
Rp11
sS'TTaURegionCSector2_114316_115464'
p12
g2
(S'\x00\x00\x00\x00'
p13
S'TObject'
p14
tp15
Rp16
sS'TTaXRegionCSector9_114316_115464'
p17
g2
(S'\x00\x00\x00\x00'
p18
S'TObject'
p19
tp20
Rp21
sS'TTbXRegionASector14_114316_115464'
p22
g2
(S'\x00\x00\x00\x00'
p23
S'TObject'
p24
tp25
Rp26
sS'TTaURegionCSector6_114316_115464'
p27
g2
(S'\x00\x00\x00\x00'
p28
S'TObject'
p29
tp30
Rp31
sS'TTbXRegionASector5_114316_115464'
p32
g2
(S'\x00\x00\x00\x00'
p33
S'TObject'
p34
tp35
Rp36
sS'TTaXRegionBSector16_114316_115464'
p37
g2
(S'\x00\x00\x00\x00'
p38
S'TObject'
p39
tp40
Rp41
sS'TTaURegionASector7_114316_115464'
p42
g2
(S'\x00\x00\x00\x00'
p43
S'TObject'
p44
tp45
Rp46
sS'TTbVRegionBSector11_114316_115464'
p47
g2
(S'\x00\x00\x00\x00'
p48
S'TObject'
p49
tp50
Rp51
sS'TTaURegionBSector17_114316_115464'
p52
g2
(S'\x00\x00\x00\x00'
p53
S'TObject'
p54
tp55
Rp56
sS'TTbVRegionBSector6_114316_115464'
p57
g2
(S'\x00\x00\x00\x00'
p58
S'TObject'
p59
tp60
Rp61
sS'TTbVRegionCSector2_114316_115464'
p62
g2
(S'\x00\x00\x00\x00'
p63
S'TObject'
p64
tp65
Rp66
sS'TTaXRegionBSector13_114316_115464'
p67
g2
(S'\x00\x00\x00\x00'
p68
S'TObject'
p69
tp70
Rp71
sS'TTaXRegionASector10_114316_115464'
p72
g2
(S'\x00\x00\x00\x00'
p73
S'TObject'
p74
tp75
Rp76
sS'TTbXRegionCSector15_114316_115464'
p77
g2
(S'\x00\x00\x00\x00'
p78
S'TObject'
p79
tp80
Rp81
sS'TTbXRegionASector8_114316_115464'
p82
g2
(S'\x00\x00\x00\x00'
p83
S'TObject'
p84
tp85
Rp86
sS'TTbXRegionBSector4_114316_115464'
p87
g2
(S'\x00\x00\x00\x00'
p88
S'TObject'
p89
tp90
Rp91
sS'TTbXRegionBSector18_114316_115464'
p92
g2
(S'\x00\x00\x00\x00'
p93
S'TObject'
p94
tp95
Rp96
sS'TTbXRegionBSector13_114316_115464'
p97
g2
(S'\x00\x00\x00\x00'
p98
S'TObject'
p99
tp100
Rp101
sS'TTaXRegionBSector5_114316_115464'
p102
g2
(S'\x00\x00\x00\x00'
p103
S'TObject'
p104
tp105
Rp106
sS'TTaXRegionCSector22_114316_115464'
p107
g2
(S'\x00\x00\x00\x00'
p108
S'TObject'
p109
tp110
Rp111
sS'TTbVRegionBSector23_114316_115464'
p112
g2
(S'\x00\x00\x00\x00'
p113
S'TObject'
p114
tp115
Rp116
sS'TTaXRegionCSector24_114316_115464'
p117
g2
(S'\x00\x00\x00\x00'
p118
S'TObject'
p119
tp120
Rp121
sS'TTbVRegionCSector24_114316_115464'
p122
g2
(S'\x00\x00\x00\x00'
p123
S'TObject'
p124
tp125
Rp126
sS'TTbXRegionASector6_114316_115464'
p127
g2
(S'\x00\x00\x00\x00'
p128
S'TObject'
p129
tp130
Rp131
sS'TTbVRegionASector3_114316_115464'
p132
g2
(S'\x00\x00\x00\x00'
p133
S'TObject'
p134
tp135
Rp136
sS'TTaURegionBSector5_114316_115464'
p137
g2
(S'\x00\x00\x00\x00'
p138
S'TObject'
p139
tp140
Rp141
sS'TTaURegionCSector20_114316_115464'
p142
g2
(S'\x00\x00\x00\x00'
p143
S'TObject'
p144
tp145
Rp146
sS'TTbXRegionCSector19_114316_115464'
p147
g2
(S'\x00\x00\x00\x00'
p148
S'TObject'
p149
tp150
Rp151
sS'TTbVRegionBSector22_114316_115464'
p152
g2
(S'\x00\x00\x00\x00'
p153
S'TObject'
p154
tp155
Rp156
sS'TTaXRegionCSector15_114316_115464'
p157
g2
(S'\x00\x00\x00\x00'
p158
S'TObject'
p159
tp160
Rp161
sS'TTbXRegionBSector2_114316_115464'
p162
g2
(S'\x00\x00\x00\x00'
p163
S'TObject'
p164
tp165
Rp166
sS'TTbVRegionASector22_114316_115464'
p167
g2
(S'\x00\x00\x00\x00'
p168
S'TObject'
p169
tp170
Rp171
sS'TTaURegionCSector8_114316_115464'
p172
g2
(S'\x00\x00\x00\x00'
p173
S'TObject'
p174
tp175
Rp176
sS'TTbXRegionBSector17_114316_115464'
p177
g2
(S'\x00\x00\x00\x00'
p178
S'TObject'
p179
tp180
Rp181
sS'TTaURegionBSector4_114316_115464'
p182
g2
(S'\x00\x00\x00\x00'
p183
S'TObject'
p184
tp185
Rp186
sS'TTbXRegionASector24_114316_115464'
p187
g2
(S'\x00\x00\x00\x00'
p188
S'TObject'
p189
tp190
Rp191
sS'TTaXRegionASector9_114316_115464'
p192
g2
(S'\x00\x00\x00\x00'
p193
S'TObject'
p194
tp195
Rp196
sS'TTbVRegionBSector18_114316_115464'
p197
g2
(S'\x00\x00\x00\x00'
p198
S'TObject'
p199
tp200
Rp201
sS'TTbXRegionASector17_114316_115464'
p202
g2
(S'\x00\x00\x00\x00'
p203
S'TObject'
p204
tp205
Rp206
sS'TTbVRegionCSector4_114316_115464'
p207
g2
(S'\x00\x00\x00\x00'
p208
S'TObject'
p209
tp210
Rp211
sS'TTaURegionBSector8_114316_115464'
p212
g2
(S'\x00\x00\x00\x00'
p213
S'TObject'
p214
tp215
Rp216
sS'TTbVRegionBSector5_114316_115464'
p217
g2
(S'\x00\x00\x00\x00'
p218
S'TObject'
p219
tp220
Rp221
sS'TTaURegionASector12_114316_115464'
p222
g2
(S'\x00\x00\x00\x00'
p223
S'TObject'
p224
tp225
Rp226
sS'TTbXRegionASector1_114316_115464'
p227
g2
(S'\x00\x00\x00\x00'
p228
S'TObject'
p229
tp230
Rp231
sS'TTaURegionCSector10_114316_115464'
p232
g2
(S'\x00\x00\x00\x00'
p233
S'TObject'
p234
tp235
Rp236
sS'TTbVRegionASector9_114316_115464'
p237
g2
(S'\x00\x00\x00\x00'
p238
S'TObject'
p239
tp240
Rp241
sS'TTaXRegionASector1_114316_115464'
p242
g2
(S'\x00\x00\x00\x00'
p243
S'TObject'
p244
tp245
Rp246
sS'TTaURegionASector14_114316_115464'
p247
g2
(S'\x00\x00\x00\x00'
p248
S'TObject'
p249
tp250
Rp251
sS'TTaXRegionASector5_114316_115464'
p252
g2
(S'\x00\x00\x00\x00'
p253
S'TObject'
p254
tp255
Rp256
sS'TTbVRegionASector24_114316_115464'
p257
g2
(S'\x00\x00\x00\x00'
p258
S'TObject'
p259
tp260
Rp261
sS'TTaURegionCSector7_114316_115464'
p262
g2
(S'\x00\x00\x00\x00'
p263
S'TObject'
p264
tp265
Rp266
sS'TTaURegionBSector16_114316_115464'
p267
g2
(S'\x00\x00\x00\x00'
p268
S'TObject'
p269
tp270
Rp271
sS'TTbXRegionBSector25_114316_115464'
p272
g2
(S'\x00\x00\x00\x00'
p273
S'TObject'
p274
tp275
Rp276
sS'TTbVRegionCSector18_114316_115464'
p277
g2
(S'\x00\x00\x00\x00'
p278
S'TObject'
p279
tp280
Rp281
sS'TTaXRegionBSector1_114316_115464'
p282
g2
(S'\x00\x00\x00\x00'
p283
S'TObject'
p284
tp285
Rp286
sS'TTbXRegionCSector8_114316_115464'
p287
g2
(S'\x00\x00\x00\x00'
p288
S'TObject'
p289
tp290
Rp291
sS'TTaURegionCSector19_114316_115464'
p292
g2
(S'\x00\x00\x00\x00'
p293
S'TObject'
p294
tp295
Rp296
sS'TTaURegionASector18_114316_115464'
p297
g2
(S'\x00\x00\x00\x00'
p298
S'TObject'
p299
tp300
Rp301
sS'TTaURegionASector11_114316_115464'
p302
g2
(S'\x00\x00\x00\x00'
p303
S'TObject'
p304
tp305
Rp306
sS'TTbXRegionCSector4_114316_115464'
p307
g2
(S'\x00\x00\x00\x00'
p308
S'TObject'
p309
tp310
Rp311
sS'TTbVRegionASector15_114316_115464'
p312
g2
(S'\x00\x00\x00\x00'
p313
S'TObject'
p314
tp315
Rp316
sS'TTbXRegionCSector2_114316_115464'
p317
g2
(S'\x00\x00\x00\x00'
p318
S'TObject'
p319
tp320
Rp321
sS'TTbVRegionASector13_114316_115464'
p322
g2
(S'\x00\x00\x00\x00'
p323
S'TObject'
p324
tp325
Rp326
sS'TTbXRegionASector18_114316_115464'
p327
g2
(S'\x00\x00\x00\x00'
p328
S'TObject'
p329
tp330
Rp331
sS'TTbVRegionCSector8_114316_115464'
p332
g2
(S'\x00\x00\x00\x00'
p333
S'TObject'
p334
tp335
Rp336
sS'TTbVRegionASector17_114316_115464'
p337
g2
(S'\x00\x00\x00\x00'
p338
S'TObject'
p339
tp340
Rp341
sS'TTaXRegionASector19_114316_115464'
p342
g2
(S'\x00\x00\x00\x00'
p343
S'TObject'
p344
tp345
Rp346
sS'TTaXRegionASector17_114316_115464'
p347
g2
(S'\x00\x00\x00\x00'
p348
S'TObject'
p349
tp350
Rp351
sS'TTbVRegionCSector16_114316_115464'
p352
g2
(S'\x00\x00\x00\x00'
p353
S'TObject'
p354
tp355
Rp356
sS'TTbXRegionCSector6_114316_115464'
p357
g2
(S'\x00\x00\x00\x00'
p358
S'TObject'
p359
tp360
Rp361
sS'TTbXRegionASector22_114316_115464'
p362
g2
(S'\x00\x00\x00\x00'
p363
S'TObject'
p364
tp365
Rp366
sS'TTaXRegionBSector15_114316_115464'
p367
g2
(S'\x00\x00\x00\x00'
p368
S'TObject'
p369
tp370
Rp371
sS'TTaXRegionCSector7_114316_115464'
p372
g2
(S'\x00\x00\x00\x00'
p373
S'TObject'
p374
tp375
Rp376
sS'TTbXRegionASector20_114316_115464'
p377
g2
(S'\x00\x00\x00\x00'
p378
S'TObject'
p379
tp380
Rp381
sS'TTbXRegionCSector21_114316_115464'
p382
g2
(S'\x00\x00\x00\x00'
p383
S'TObject'
p384
tp385
Rp386
sS'TTaURegionASector16_114316_115464'
p387
g2
(S'\x00\x00\x00\x00'
p388
S'TObject'
p389
tp390
Rp391
sS'TTbVRegionBSector24_114316_115464'
p392
g2
(S'\x00\x00\x00\x00'
p393
S'TObject'
p394
tp395
Rp396
sS'TTbXRegionASector11_114316_115464'
p397
g2
(S'\x00\x00\x00\x00'
p398
S'TObject'
p399
tp400
Rp401
sS'TTaXRegionCSector21_114316_115464'
p402
g2
(S'\x00\x00\x00\x00'
p403
S'TObject'
p404
tp405
Rp406
sS'TTaURegionCSector21_114316_115464'
p407
g2
(S'\x00\x00\x00\x00'
p408
S'TObject'
p409
tp410
Rp411
sS'TTaURegionCSector22_114316_115464'
p412
g2
(S'\x00\x00\x00\x00'
p413
S'TObject'
p414
tp415
Rp416
sS'TTbVRegionCSector23_114316_115464'
p417
g2
(S'\x00\x00\x00\x00'
p418
S'TObject'
p419
tp420
Rp421
sS'TTbVRegionBSector20_114316_115464'
p422
g2
(S'\x00\x00\x00\x00'
p423
S'TObject'
p424
tp425
Rp426
sS'TTbVRegionCSector12_114316_115464'
p427
g2
(S'\x00\x00\x00\x00'
p428
S'TObject'
p429
tp430
Rp431
sS'TTbXRegionCSector24_114316_115464'
p432
g2
(S'\x00\x00\x00\x00'
p433
S'TObject'
p434
tp435
Rp436
sS'TTbXRegionCSector16_114316_115464'
p437
g2
(S'\x00\x00\x00\x00'
p438
S'TObject'
p439
tp440
Rp441
sS'TTbVRegionBSector14_114316_115464'
p442
g2
(S'\x00\x00\x00\x00'
p443
S'TObject'
p444
tp445
Rp446
sS'TTbXRegionASector16_114316_115464'
p447
g2
(S'\x00\x00\x00\x00'
p448
S'TObject'
p449
tp450
Rp451
sS'TTbXRegionASector10_114316_115464'
p452
g2
(S'\x00\x00\x00\x00'
p453
S'TObject'
p454
tp455
Rp456
sS'TTaURegionASector20_114316_115464'
p457
g2
(S'\x00\x00\x00\x00'
p458
S'TObject'
p459
tp460
Rp461
sS'TTaURegionBSector15_114316_115464'
p462
g2
(S'\x00\x00\x00\x00'
p463
S'TObject'
p464
tp465
Rp466
sS'TTaXRegionASector15_114316_115464'
p467
g2
(S'\x00\x00\x00\x00'
p468
S'TObject'
p469
tp470
Rp471
sS'TTaXRegionASector21_114316_115464'
p472
g2
(S'\x00\x00\x00\x00'
p473
S'TObject'
p474
tp475
Rp476
sS'TTbVRegionCSector17_114316_115464'
p477
g2
(S'\x00\x00\x00\x00'
p478
S'TObject'
p479
tp480
Rp481
sS'TTaURegionCSector13_114316_115464'
p482
g2
(S'\x00\x00\x00\x00'
p483
S'TObject'
p484
tp485
Rp486
sS'TTaURegionASector23_114316_115464'
p487
g2
(S'\x00\x00\x00\x00'
p488
S'TObject'
p489
tp490
Rp491
sS'TTbXRegionBSector14_114316_115464'
p492
g2
(S'\x00\x00\x00\x00'
p493
S'TObject'
p494
tp495
Rp496
sS'TTbXRegionBSector23_114316_115464'
p497
g2
(S'\x00\x00\x00\x00'
p498
S'TObject'
p499
tp500
Rp501
sS'TTaURegionASector2_114316_115464'
p502
g2
(S'\x00\x00\x00\x00'
p503
S'TObject'
p504
tp505
Rp506
sS'TTaURegionBSector18_114316_115464'
p507
g2
(S'\x00\x00\x00\x00'
p508
S'TObject'
p509
tp510
Rp511
sS'TTbVRegionBSector7_114316_115464'
p512
g2
(S'\x00\x00\x00\x00'
p513
S'TObject'
p514
tp515
Rp516
sS'TTbVRegionCSector1_114316_115464'
p517
g2
(S'\x00\x00\x00\x00'
p518
S'TObject'
p519
tp520
Rp521
sS'TTbVRegionBSector26_114316_115464'
p522
g2
(S'\x00\x00\x00\x00'
p523
S'TObject'
p524
tp525
Rp526
sS'TTbVRegionASector20_114316_115464'
p527
g2
(S'\x00\x00\x00\x00'
p528
S'TObject'
p529
tp530
Rp531
sS'TTaXRegionBSector11_114316_115464'
p532
g2
(S'\x00\x00\x00\x00'
p533
S'TObject'
p534
tp535
Rp536
sS'TTaXRegionASector23_114316_115464'
p537
g2
(S'\x00\x00\x00\x00'
p538
S'TObject'
p539
tp540
Rp541
sS'TTbVRegionBSector2_114316_115464'
p542
g2
(S'\x00\x00\x00\x00'
p543
S'TObject'
p544
tp545
Rp546
sS'TTbXRegionBSector20_114316_115464'
p547
g2
(S'\x00\x00\x00\x00'
p548
S'TObject'
p549
tp550
Rp551
sS'TTaURegionCSector12_114316_115464'
p552
g2
(S'\x00\x00\x00\x00'
p553
S'TObject'
p554
tp555
Rp556
sS'TTbVRegionASector10_114316_115464'
p557
g2
(S'\x00\x00\x00\x00'
p558
S'TObject'
p559
tp560
Rp561
sS'TTbXRegionCSector1_114316_115464'
p562
g2
(S'\x00\x00\x00\x00'
p563
S'TObject'
p564
tp565
Rp566
sS'TTbXRegionBSector16_114316_115464'
p567
g2
(S'\x00\x00\x00\x00'
p568
S'TObject'
p569
tp570
Rp571
sS'TTbXRegionBSector11_114316_115464'
p572
g2
(S'\x00\x00\x00\x00'
p573
S'TObject'
p574
tp575
Rp576
sS'TTaXRegionBSector7_114316_115464'
p577
g2
(S'\x00\x00\x00\x00'
p578
S'TObject'
p579
tp580
Rp581
sS'TTaXRegionASector13_114316_115464'
p582
g2
(S'\x00\x00\x00\x00'
p583
S'TObject'
p584
tp585
Rp586
sS'TTbVRegionASector23_114316_115464'
p587
g2
(S'\x00\x00\x00\x00'
p588
S'TObject'
p589
tp590
Rp591
sS'TTbXRegionBSector6_114316_115464'
p592
g2
(S'\x00\x00\x00\x00'
p593
S'TObject'
p594
tp595
Rp596
sS'TTbVRegionASector2_114316_115464'
p597
g2
(S'\x00\x00\x00\x00'
p598
S'TObject'
p599
tp600
Rp601
sS'TTaXRegionASector3_114316_115464'
p602
g2
(S'\x00\x00\x00\x00'
p603
S'TObject'
p604
tp605
Rp606
sS'TTbXRegionBSector24_114316_115464'
p607
g2
(S'\x00\x00\x00\x00'
p608
S'TObject'
p609
tp610
Rp611
sS'TTbVRegionBSector12_114316_115464'
p612
g2
(S'\x00\x00\x00\x00'
p613
S'TObject'
p614
tp615
Rp616
sS'TTaURegionASector19_114316_115464'
p617
g2
(S'\x00\x00\x00\x00'
p618
S'TObject'
p619
tp620
Rp621
sS'TTaXRegionCSector17_114316_115464'
p622
g2
(S'\x00\x00\x00\x00'
p623
S'TObject'
p624
tp625
Rp626
sS'TTaXRegionCSector11_114316_115464'
p627
g2
(S'\x00\x00\x00\x00'
p628
S'TObject'
p629
tp630
Rp631
sS'TTaXRegionASector6_114316_115464'
p632
g2
(S'\x00\x00\x00\x00'
p633
S'TObject'
p634
tp635
Rp636
sS'TTbXRegionBSector15_114316_115464'
p637
g2
(S'\x00\x00\x00\x00'
p638
S'TObject'
p639
tp640
Rp641
sS'TTbVRegionCSector22_114316_115464'
p642
g2
(S'\x00\x00\x00\x00'
p643
S'TObject'
p644
tp645
Rp646
sS'TTaXRegionBSector14_114316_115464'
p647
g2
(S'\x00\x00\x00\x00'
p648
S'TObject'
p649
tp650
Rp651
sS'TTbXRegionBSector8_114316_115464'
p652
g2
(S'\x00\x00\x00\x00'
p653
S'TObject'
p654
tp655
Rp656
sS'TTaXRegionBSector12_114316_115464'
p657
g2
(S'\x00\x00\x00\x00'
p658
S'TObject'
p659
tp660
Rp661
sS'TTaURegionASector3_114316_115464'
p662
g2
(S'\x00\x00\x00\x00'
p663
S'TObject'
p664
tp665
Rp666
sS'TTbXRegionCSector12_114316_115464'
p667
g2
(S'\x00\x00\x00\x00'
p668
S'TObject'
p669
tp670
Rp671
sS'TTbVRegionASector21_114316_115464'
p672
g2
(S'\x00\x00\x00\x00'
p673
S'TObject'
p674
tp675
Rp676
sS'TTaXRegionBSector3_114316_115464'
p677
g2
(S'\x00\x00\x00\x00'
p678
S'TObject'
p679
tp680
Rp681
sS'TTbVRegionCSector11_114316_115464'
p682
g2
(S'\x00\x00\x00\x00'
p683
S'TObject'
p684
tp685
Rp686
sS'TTbXRegionCSector23_114316_115464'
p687
g2
(S'\x00\x00\x00\x00'
p688
S'TObject'
p689
tp690
Rp691
sS'TTaXRegionCSector2_114316_115464'
p692
g2
(S'\x00\x00\x00\x00'
p693
S'TObject'
p694
tp695
Rp696
sS'TTaURegionCSector9_114316_115464'
p697
g2
(S'\x00\x00\x00\x00'
p698
S'TObject'
p699
tp700
Rp701
sS'TTaXRegionBSector18_114316_115464'
p702
g2
(S'\x00\x00\x00\x00'
p703
S'TObject'
p704
tp705
Rp706
sS'TTaURegionASector9_114316_115464'
p707
g2
(S'\x00\x00\x00\x00'
p708
S'TObject'
p709
tp710
Rp711
sS'TTaXRegionASector20_114316_115464'
p712
g2
(S'\x00\x00\x00\x00'
p713
S'TObject'
p714
tp715
Rp716
sS'TTaXRegionCSector13_114316_115464'
p717
g2
(S'\x00\x00\x00\x00'
p718
S'TObject'
p719
tp720
Rp721
sS'TTaXRegionCSector20_114316_115464'
p722
g2
(S'\x00\x00\x00\x00'
p723
S'TObject'
p724
tp725
Rp726
sS'TTbVRegionCSector10_114316_115464'
p727
g2
(S'\x00\x00\x00\x00'
p728
S'TObject'
p729
tp730
Rp731
sS'TTaXRegionBSector9_114316_115464'
p732
g2
(S'\x00\x00\x00\x00'
p733
S'TObject'
p734
tp735
Rp736
sS'TTbXRegionBSector3_114316_115464'
p737
g2
(S'\x00\x00\x00\x00'
p738
S'TObject'
p739
tp740
Rp741
sS'TTbVRegionBSector4_114316_115464'
p742
g2
(S'\x00\x00\x00\x00'
p743
S'TObject'
p744
tp745
Rp746
sS'TTaURegionASector21_114316_115464'
p747
g2
(S'\x00\x00\x00\x00'
p748
S'TObject'
p749
tp750
Rp751
sS'TTaXRegionBSector2_114316_115464'
p752
g2
(S'\x00\x00\x00\x00'
p753
S'TObject'
p754
tp755
Rp756
sS'TTbVRegionCSector6_114316_115464'
p757
g2
(S'\x00\x00\x00\x00'
p758
S'TObject'
p759
tp760
Rp761
sS'TTbVRegionASector19_114316_115464'
p762
g2
(S'\x00\x00\x00\x00'
p763
S'TObject'
p764
tp765
Rp766
sS'TTbXRegionBSector1_114316_115464'
p767
g2
(S'\x00\x00\x00\x00'
p768
S'TObject'
p769
tp770
Rp771
sS'TTaURegionASector5_114316_115464'
p772
g2
(S'\x00\x00\x00\x00'
p773
S'TObject'
p774
tp775
Rp776
sS'TTaXRegionASector4_114316_115464'
p777
g2
(S'\x00\x00\x00\x00'
p778
S'TObject'
p779
tp780
Rp781
sS'TTbVRegionASector11_114316_115464'
p782
g2
(S'\x00\x00\x00\x00'
p783
S'TObject'
p784
tp785
Rp786
sS'TTaURegionASector8_114316_115464'
p787
g2
(S'\x00\x00\x00\x00'
p788
S'TObject'
p789
tp790
Rp791
sS'TTbXRegionASector15_114316_115464'
p792
g2
(S'\x00\x00\x00\x00'
p793
S'TObject'
p794
tp795
Rp796
sS'TTaURegionCSector24_114316_115464'
p797
g2
(S'\x00\x00\x00\x00'
p798
S'TObject'
p799
tp800
Rp801
sS'TTaURegionCSector16_114316_115464'
p802
g2
(S'\x00\x00\x00\x00'
p803
S'TObject'
p804
tp805
Rp806
sS'TTbVRegionCSector19_114316_115464'
p807
g2
(S'\x00\x00\x00\x00'
p808
S'TObject'
p809
tp810
Rp811
sS'TTbVRegionBSector16_114316_115464'
p812
g2
(S'\x00\x00\x00\x00'
p813
S'TObject'
p814
tp815
Rp816
sS'TTaXRegionBSector4_114316_115464'
p817
g2
(S'\x00\x00\x00\x00'
p818
S'TObject'
p819
tp820
Rp821
sS'TTbXRegionBSector12_114316_115464'
p822
g2
(S'\x00\x00\x00\x00'
p823
S'TObject'
p824
tp825
Rp826
sS'TTbXRegionCSector18_114316_115464'
p827
g2
(S'\x00\x00\x00\x00'
p828
S'TObject'
p829
tp830
Rp831
sS'TTaURegionBSector12_114316_115464'
p832
g2
(S'\x00\x00\x00\x00'
p833
S'TObject'
p834
tp835
Rp836
sS'TTbXRegionASector9_114316_115464'
p837
g2
(S'\x00\x00\x00\x00'
p838
S'TObject'
p839
tp840
Rp841
sS'TTaURegionASector13_114316_115464'
p842
g2
(S'\x00\x00\x00\x00'
p843
S'TObject'
p844
tp845
Rp846
sS'TTbVRegionCSector13_114316_115464'
p847
g2
(S'\x00\x00\x00\x00'
p848
S'TObject'
p849
tp850
Rp851
sS'TTbXRegionCSector9_114316_115464'
p852
g2
(S'\x00\x00\x00\x00'
p853
S'TObject'
p854
tp855
Rp856
sS'TTbXRegionCSector11_114316_115464'
p857
g2
(S'\x00\x00\x00\x00'
p858
S'TObject'
p859
tp860
Rp861
sS'TTbVRegionBSector15_114316_115464'
p862
g2
(S'\x00\x00\x00\x00'
p863
S'TObject'
p864
tp865
Rp866
sS'TTbXRegionCSector7_114316_115464'
p867
g2
(S'\x00\x00\x00\x00'
p868
S'TObject'
p869
tp870
Rp871
sS'TTaXRegionCSector8_114316_115464'
p872
g2
(S'\x00\x00\x00\x00'
p873
S'TObject'
p874
tp875
Rp876
sS'TTaURegionCSector4_114316_115464'
p877
g2
(S'\x00\x00\x00\x00'
p878
S'TObject'
p879
tp880
Rp881
sS'TTbXRegionBSector19_114316_115464'
p882
g2
(S'\x00\x00\x00\x00'
p883
S'TObject'
p884
tp885
Rp886
sS'TTaURegionBSector13_114316_115464'
p887
g2
(S'\x00\x00\x00\x00'
p888
S'TObject'
p889
tp890
Rp891
sS'TTbXRegionBSector26_114316_115464'
p892
g2
(S'\x00\x00\x00\x00'
p893
S'TObject'
p894
tp895
Rp896
sS'TTbXRegionBSector5_114316_115464'
p897
g2
(S'\x00\x00\x00\x00'
p898
S'TObject'
p899
tp900
Rp901
sS'TTaURegionASector22_114316_115464'
p902
g2
(S'\x00\x00\x00\x00'
p903
S'TObject'
p904
tp905
Rp906
sS'TTbXRegionCSector14_114316_115464'
p907
g2
(S'\x00\x00\x00\x00'
p908
S'TObject'
p909
tp910
Rp911
sS'TTbXRegionASector13_114316_115464'
p912
g2
(S'\x00\x00\x00\x00'
p913
S'TObject'
p914
tp915
Rp916
sS'TTaXRegionCSector19_114316_115464'
p917
g2
(S'\x00\x00\x00\x00'
p918
S'TObject'
p919
tp920
Rp921
sS'TTbVRegionBSector9_114316_115464'
p922
g2
(S'\x00\x00\x00\x00'
p923
S'TObject'
p924
tp925
Rp926
sS'TTbVRegionBSector19_114316_115464'
p927
g2
(S'\x00\x00\x00\x00'
p928
S'TObject'
p929
tp930
Rp931
sS'TTaURegionASector6_114316_115464'
p932
g2
(S'\x00\x00\x00\x00'
p933
S'TObject'
p934
tp935
Rp936
sS'TTaXRegionBSector17_114316_115464'
p937
g2
(S'\x00\x00\x00\x00'
p938
S'TObject'
p939
tp940
Rp941
sS'TTaXRegionCSector14_114316_115464'
p942
g2
(S'\x00\x00\x00\x00'
p943
S'TObject'
p944
tp945
Rp946
sS'TTbVRegionASector4_114316_115464'
p947
g2
(S'\x00\x00\x00\x00'
p948
S'TObject'
p949
tp950
Rp951
sS'TTbVRegionCSector14_114316_115464'
p952
g2
(S'\x00\x00\x00\x00'
p953
S'TObject'
p954
tp955
Rp956
sS'TTaXRegionASector24_114316_115464'
p957
g2
(S'\x00\x00\x00\x00'
p958
S'TObject'
p959
tp960
Rp961
sS'TTaURegionBSector9_114316_115464'
p962
g2
(S'\x00\x00\x00\x00'
p963
S'TObject'
p964
tp965
Rp966
sS'TTaURegionASector17_114316_115464'
p967
g2
(S'\x00\x00\x00\x00'
p968
S'TObject'
p969
tp970
Rp971
sS'TTaXRegionCSector3_114316_115464'
p972
g2
(S'\x00\x00\x00\x00'
p973
S'TObject'
p974
tp975
Rp976
sS'TTbXRegionCSector22_114316_115464'
p977
g2
(S'\x00\x00\x00\x00'
p978
S'TObject'
p979
tp980
Rp981
sS'TTaXRegionASector18_114316_115464'
p982
g2
(S'\x00\x00\x00\x00'
p983
S'TObject'
p984
tp985
Rp986
sS'TTbVRegionCSector3_114316_115464'
p987
g2
(S'\x00\x00\x00\x00'
p988
S'TObject'
p989
tp990
Rp991
sS'TTbXRegionBSector9_114316_115464'
p992
g2
(S'\x00\x00\x00\x00'
p993
S'TObject'
p994
tp995
Rp996
sS'TTbVRegionCSector5_114316_115464'
p997
g2
(S'\x00\x00\x00\x00'
p998
S'TObject'
p999
tp1000
Rp1001
sS'TTbXRegionCSector10_114316_115464'
p1002
g2
(S'\x00\x00\x00\x00'
p1003
S'TObject'
p1004
tp1005
Rp1006
sS'TTaURegionBSector7_114316_115464'
p1007
g2
(S'\x00\x00\x00\x00'
p1008
S'TObject'
p1009
tp1010
Rp1011
sS'TTbVRegionCSector20_114316_115464'
p1012
g2
(S'\x00\x00\x00\x00'
p1013
S'TObject'
p1014
tp1015
Rp1016
sS'TTaURegionCSector15_114316_115464'
p1017
g2
(S'\x00\x00\x00\x00'
p1018
S'TObject'
p1019
tp1020
Rp1021
sS'TTaURegionCSector17_114316_115464'
p1022
g2
(S'\x00\x00\x00\x00'
p1023
S'TObject'
p1024
tp1025
Rp1026
sS'TTaXRegionCSector4_114316_115464'
p1027
g2
(S'\x00\x00\x00\x00'
p1028
S'TObject'
p1029
tp1030
Rp1031
sS'TTbVRegionCSector15_114316_115464'
p1032
g2
(S'\x00\x00\x00\x00'
p1033
S'TObject'
p1034
tp1035
Rp1036
sS'TTaXRegionASector14_114316_115464'
p1037
g2
(S'\x00\x00\x00\x00'
p1038
S'TObject'
p1039
tp1040
Rp1041
sS'TTaXRegionASector12_114316_115464'
p1042
g2
(S'\x00\x00\x00\x00'
p1043
S'TObject'
p1044
tp1045
Rp1046
sS'TTaXRegionASector16_114316_115464'
p1047
g2
(S'\x00\x00\x00\x00'
p1048
S'TObject'
p1049
tp1050
Rp1051
sS'TTbVRegionASector18_114316_115464'
p1052
g2
(S'\x00\x00\x00\x00'
p1053
S'TObject'
p1054
tp1055
Rp1056
sS'TTbVRegionCSector7_114316_115464'
p1057
g2
(S'\x00\x00\x00\x00'
p1058
S'TObject'
p1059
tp1060
Rp1061
sS'TTbVRegionASector16_114316_115464'
p1062
g2
(S'\x00\x00\x00\x00'
p1063
S'TObject'
p1064
tp1065
Rp1066
sS'TTbVRegionCSector9_114316_115464'
p1067
g2
(S'\x00\x00\x00\x00'
p1068
S'TObject'
p1069
tp1070
Rp1071
sS'TTaXRegionBSector8_114316_115464'
p1072
g2
(S'\x00\x00\x00\x00'
p1073
S'TObject'
p1074
tp1075
Rp1076
sS'TTbXRegionASector3_114316_115464'
p1077
g2
(S'\x00\x00\x00\x00'
p1078
S'TObject'
p1079
tp1080
Rp1081
sS'TTaXRegionASector22_114316_115464'
p1082
g2
(S'\x00\x00\x00\x00'
p1083
S'TObject'
p1084
tp1085
Rp1086
sS'TTaXRegionCSector12_114316_115464'
p1087
g2
(S'\x00\x00\x00\x00'
p1088
S'TObject'
p1089
tp1090
Rp1091
sS'TTbVRegionASector5_114316_115464'
p1092
g2
(S'\x00\x00\x00\x00'
p1093
S'TObject'
p1094
tp1095
Rp1096
sS'TTbVRegionBSector25_114316_115464'
p1097
g2
(S'\x00\x00\x00\x00'
p1098
S'TObject'
p1099
tp1100
Rp1101
sS'TTaXRegionCSector16_114316_115464'
p1102
g2
(S'\x00\x00\x00\x00'
p1103
S'TObject'
p1104
tp1105
Rp1106
sS'TTbXRegionASector21_114316_115464'
p1107
g2
(S'\x00\x00\x00\x00'
p1108
S'TObject'
p1109
tp1110
Rp1111
sS'TTaURegionCSector5_114316_115464'
p1112
g2
(S'\x00\x00\x00\x00'
p1113
S'TObject'
p1114
tp1115
Rp1116
sS'TTaURegionCSector3_114316_115464'
p1117
g2
(S'\x00\x00\x00\x00'
p1118
S'TObject'
p1119
tp1120
Rp1121
sS'TTaXRegionBSector6_114316_115464'
p1122
g2
(S'\x00\x00\x00\x00'
p1123
S'TObject'
p1124
tp1125
Rp1126
sS'TTbXRegionBSector10_114316_115464'
p1127
g2
(S'\x00\x00\x00\x00'
p1128
S'TObject'
p1129
tp1130
Rp1131
sS'TTbXRegionBSector22_114316_115464'
p1132
g2
(S'\x00\x00\x00\x00'
p1133
S'TObject'
p1134
tp1135
Rp1136
sS'TTbXRegionCSector13_114316_115464'
p1137
g2
(S'\x00\x00\x00\x00'
p1138
S'TObject'
p1139
tp1140
Rp1141
sS'TTaURegionASector10_114316_115464'
p1142
g2
(S'\x00\x00\x00\x00'
p1143
S'TObject'
p1144
tp1145
Rp1146
sS'TTbXRegionCSector17_114316_115464'
p1147
g2
(S'\x00\x00\x00\x00'
p1148
S'TObject'
p1149
tp1150
Rp1151
sS'TTaXRegionASector7_114316_115464'
p1152
g2
(S'\x00\x00\x00\x00'
p1153
S'TObject'
p1154
tp1155
Rp1156
sS'TTbXRegionASector7_114316_115464'
p1157
g2
(S'\x00\x00\x00\x00'
p1158
S'TObject'
p1159
tp1160
Rp1161
sS'TTaURegionASector24_114316_115464'
p1162
g2
(S'\x00\x00\x00\x00'
p1163
S'TObject'
p1164
tp1165
Rp1166
sS'TTbXRegionBSector7_114316_115464'
p1167
g2
(S'\x00\x00\x00\x00'
p1168
S'TObject'
p1169
tp1170
Rp1171
sS'TTbVRegionBSector8_114316_115464'
p1172
g2
(S'\x00\x00\x00\x00'
p1173
S'TObject'
p1174
tp1175
Rp1176
sS'TTbVRegionBSector10_114316_115464'
p1177
g2
(S'\x00\x00\x00\x00'
p1178
S'TObject'
p1179
tp1180
Rp1181
sS'TTaURegionCSector18_114316_115464'
p1182
g2
(S'\x00\x00\x00\x00'
p1183
S'TObject'
p1184
tp1185
Rp1186
sS'TTbVRegionASector1_114316_115464'
p1187
g2
(S'\x00\x00\x00\x00'
p1188
S'TObject'
p1189
tp1190
Rp1191
sS'TTbVRegionASector14_114316_115464'
p1192
g2
(S'\x00\x00\x00\x00'
p1193
S'TObject'
p1194
tp1195
Rp1196
sS'TTbXRegionCSector5_114316_115464'
p1197
g2
(S'\x00\x00\x00\x00'
p1198
S'TObject'
p1199
tp1200
Rp1201
sS'TTaURegionBSector10_114316_115464'
p1202
g2
(S'\x00\x00\x00\x00'
p1203
S'TObject'
p1204
tp1205
Rp1206
sS'TTbXRegionASector2_114316_115464'
p1207
g2
(S'\x00\x00\x00\x00'
p1208
S'TObject'
p1209
tp1210
Rp1211
sS'TTaURegionCSector1_114316_115464'
p1212
g2
(S'\x00\x00\x00\x00'
p1213
S'TObject'
p1214
tp1215
Rp1216
sS'TTbVRegionBSector13_114316_115464'
p1217
g2
(S'\x00\x00\x00\x00'
p1218
S'TObject'
p1219
tp1220
Rp1221
sS'TTaURegionBSector1_114316_115464'
p1222
g2
(S'\x00\x00\x00\x00'
p1223
S'TObject'
p1224
tp1225
Rp1226
sS'TTbVRegionBSector1_114316_115464'
p1227
g2
(S'\x00\x00\x00\x00'
p1228
S'TObject'
p1229
tp1230
Rp1231
sS'TTaURegionASector4_114316_115464'
p1232
g2
(S'\x00\x00\x00\x00'
p1233
S'TObject'
p1234
tp1235
Rp1236
sS'TTbXRegionASector19_114316_115464'
p1237
g2
(S'\x00\x00\x00\x00'
p1238
S'TObject'
p1239
tp1240
Rp1241
sS'TTbXRegionASector23_114316_115464'
p1242
g2
(S'\x00\x00\x00\x00'
p1243
S'TObject'
p1244
tp1245
Rp1246
sS'TTbVRegionBSector3_114316_115464'
p1247
g2
(S'\x00\x00\x00\x00'
p1248
S'TObject'
p1249
tp1250
Rp1251
sS'TTbXRegionASector12_114316_115464'
p1252
g2
(S'\x00\x00\x00\x00'
p1253
S'TObject'
p1254
tp1255
Rp1256
sS'TTaURegionCSector14_114316_115464'
p1257
g2
(S'\x00\x00\x00\x00'
p1258
S'TObject'
p1259
tp1260
Rp1261
sS'TTaXRegionBSector10_114316_115464'
p1262
g2
(S'\x00\x00\x00\x00'
p1263
S'TObject'
p1264
tp1265
Rp1266
sS'TTaURegionASector1_114316_115464'
p1267
g2
(S'\x00\x00\x00\x00'
p1268
S'TObject'
p1269
tp1270
Rp1271
sS'TTaURegionASector15_114316_115464'
p1272
g2
(S'\x00\x00\x00\x00'
p1273
S'TObject'
p1274
tp1275
Rp1276
sS'TTaURegionBSector2_114316_115464'
p1277
g2
(S'\x00\x00\x00\x00'
p1278
S'TObject'
p1279
tp1280
Rp1281
sS'TTaXRegionASector11_114316_115464'
p1282
g2
(S'\x00\x00\x00\x00'
p1283
S'TObject'
p1284
tp1285
Rp1286
sS'TTaURegionBSector3_114316_115464'
p1287
g2
(S'\x00\x00\x00\x00'
p1288
S'TObject'
p1289
tp1290
Rp1291
sS'TTbVRegionBSector21_114316_115464'
p1292
g2
(S'\x00\x00\x00\x00'
p1293
S'TObject'
p1294
tp1295
Rp1296
sS'TTaXRegionCSector6_114316_115464'
p1297
g2
(S'\x00\x00\x00\x00'
p1298
S'TObject'
p1299
tp1300
Rp1301
sS'TTbVRegionASector12_114316_115464'
p1302
g2
(S'\x00\x00\x00\x00'
p1303
S'TObject'
p1304
tp1305
Rp1306
sS'TTbXRegionCSector3_114316_115464'
p1307
g2
(S'\x00\x00\x00\x00'
p1308
S'TObject'
p1309
tp1310
Rp1311
sS'TTbVRegionBSector17_114316_115464'
p1312
g2
(S'\x00\x00\x00\x00'
p1313
S'TObject'
p1314
tp1315
Rp1316
sS'TTaXRegionCSector23_114316_115464'
p1317
g2
(S'\x00\x00\x00\x00'
p1318
S'TObject'
p1319
tp1320
Rp1321
sS'TTaXRegionCSector10_114316_115464'
p1322
g2
(S'\x00\x00\x00\x00'
p1323
S'TObject'
p1324
tp1325
Rp1326
sS'TTbXRegionASector4_114316_115464'
p1327
g2
(S'\x00\x00\x00\x00'
p1328
S'TObject'
p1329
tp1330
Rp1331
sS'TTaXRegionASector2_114316_115464'
p1332
g2
(S'\x00\x00\x00\x00'
p1333
S'TObject'
p1334
tp1335
Rp1336
sS'TTaXRegionCSector1_114316_115464'
p1337
g2
(S'\x00\x00\x00\x00'
p1338
S'TObject'
p1339
tp1340
Rp1341
sS'TTbXRegionCSector20_114316_115464'
p1342
g2
(S'\x00\x00\x00\x00'
p1343
S'TObject'
p1344
tp1345
Rp1346
sS'TTbVRegionASector6_114316_115464'
p1347
g2
(S'\x00\x00\x00\x00'
p1348
S'TObject'
p1349
tp1350
Rp1351
sS'TTaURegionBSector6_114316_115464'
p1352
g2
(S'\x00\x00\x00\x00'
p1353
S'TObject'
p1354
tp1355
Rp1356
sS'TTbVRegionASector7_114316_115464'
p1357
g2
(S'\x00\x00\x00\x00'
p1358
S'TObject'
p1359
tp1360
Rp1361
sS'TTaXRegionCSector5_114316_115464'
p1362
g2
(S'\x00\x00\x00\x00'
p1363
S'TObject'
p1364
tp1365
Rp1366
sS'TTaXRegionASector8_114316_115464'
p1367
g2
(S'\x00\x00\x00\x00'
p1368
S'TObject'
p1369
tp1370
Rp1371
sS'TTbVRegionASector8_114316_115464'
p1372
g2
(S'\x00\x00\x00\x00'
p1373
S'TObject'
p1374
tp1375
Rp1376
sS'TTaURegionCSector11_114316_115464'
p1377
g2
(S'\x00\x00\x00\x00'
p1378
S'TObject'
p1379
tp1380
Rp1381
sS'TTaURegionCSector23_114316_115464'
p1382
g2
(S'\x00\x00\x00\x00'
p1383
S'TObject'
p1384
tp1385
Rp1386
sS'TTbXRegionBSector21_114316_115464'
p1387
g2
(S'\x00\x00\x00\x00'
p1388
S'TObject'
p1389
tp1390
Rp1391
sS'TTbVRegionCSector21_114316_115464'
p1392
g2
(S'\x00\x00\x00\x00'
p1393
S'TObject'
p1394
tp1395
Rp1396
sS'TTaURegionBSector14_114316_115464'
p1397
g2
(S'\x00\x00\x00\x00'
p1398
S'TObject'
p1399
tp1400
Rp1401
s.